target datalayout = "e-m:e-p270:32:32-p271:32:32-p272:64:64-i64:64-i128:128-f80:128-n8:16:32:64-S128"
target triple = "x86_64-pc-linux-gnu"

%struct._zend_array = type { %struct._zend_refcounted_h, %union.anon.1, i32, %union.anon.2, i32, i32, i32, i32, i64, ptr }
%struct._zend_refcounted_h = type { i32, %union.anon.0 }
%union.anon.0 = type { i32 }
%union.anon.1 = type { i32 }
%union.anon.2 = type { ptr }
%struct._zend_class_entry = type { i8, ptr, %union.anon, i32, i32, i32, i32, ptr, ptr, ptr, %struct._zend_array, %struct._zend_array, %struct._zend_array, ptr, ptr, ptr, ptr, ptr, ptr, ptr, ptr, ptr, ptr, ptr, ptr, ptr, ptr, ptr, ptr, ptr, ptr, ptr, %union.anon.3, ptr, ptr, ptr, ptr, i32, i32, i32, i32, %union.anon.4, ptr, ptr, ptr, ptr, i32, ptr, ptr, %union.anon.5 }
%union.anon = type { ptr }
%union.anon.3 = type { ptr }
%union.anon.4 = type { ptr }
%union.anon.5 = type { %struct.anon.6 }
%struct.anon.6 = type { ptr, i32, i32 }

; Function Attrs: alwaysinline nounwind uwtable
define internal zeroext i1 @zend_hash_exists(ptr noundef %0, ptr noundef %1) #3 {
  %3 = alloca ptr, align 8
  %4 = alloca ptr, align 8
  store ptr %0, ptr %3, align 8, !tbaa !47
  store ptr %1, ptr %4, align 8, !tbaa !19
  %5 = load ptr, ptr %3, align 8, !tbaa !47
  %6 = load ptr, ptr %4, align 8, !tbaa !19
  %7 = call ptr @zend_hash_find(ptr noundef %5, ptr noundef %6)
  %8 = icmp ne ptr %7, null
  ret i1 %8
}

; Function Attrs: nounwind uwtable
define internal ptr @find_first_property_definition(ptr noundef %0, ptr noundef %1, i64 noundef %2, ptr noundef %3, ptr noundef %4) #0 {
  %6 = alloca ptr, align 8
  %7 = alloca ptr, align 8
  %8 = alloca ptr, align 8
  %9 = alloca i64, align 8
  %10 = alloca ptr, align 8
  %11 = alloca ptr, align 8
  %12 = alloca i64, align 8
  %13 = alloca i32, align 4
  store ptr %0, ptr %7, align 8, !tbaa !8
  store ptr %1, ptr %8, align 8, !tbaa !131
  store i64 %2, ptr %9, align 8, !tbaa !43
  store ptr %3, ptr %10, align 8, !tbaa !19
  store ptr %4, ptr %11, align 8, !tbaa !8
  call void @llvm.lifetime.start.p0(i64 8, ptr %12) #19
  %14 = load ptr, ptr %11, align 8, !tbaa !8
  %15 = load ptr, ptr %7, align 8, !tbaa !8
  %16 = icmp eq ptr %14, %15
  br i1 %16, label %17, label %46

17:                                               ; preds = %5
  store i64 0, ptr %12, align 8, !tbaa !43
  br label %18

18:                                               ; preds = %42, %17
  %19 = load i64, ptr %12, align 8, !tbaa !43
  %20 = load i64, ptr %9, align 8, !tbaa !43
  %21 = icmp ult i64 %19, %20
  br i1 %21, label %22, label %45

22:                                               ; preds = %18
  %23 = load ptr, ptr %8, align 8, !tbaa !131
  %24 = load i64, ptr %12, align 8, !tbaa !43
  %25 = getelementptr inbounds nuw ptr, ptr %23, i64 %24
  %26 = load ptr, ptr %25, align 8, !tbaa !8
  %27 = icmp ne ptr %26, null
  br i1 %27, label %28, label %41

28:                                               ; preds = %22
  %29 = load ptr, ptr %8, align 8, !tbaa !131
  %30 = load i64, ptr %12, align 8, !tbaa !43
  %31 = getelementptr inbounds nuw ptr, ptr %29, i64 %30
  %32 = load ptr, ptr %31, align 8, !tbaa !8
  %33 = getelementptr inbounds nuw %struct._zend_class_entry, ptr %32, i32 0, i32 11
  %34 = load ptr, ptr %10, align 8, !tbaa !19
  %35 = call zeroext i1 @zend_hash_exists(ptr noundef %33, ptr noundef %34)
  br i1 %35, label %36, label %41

36:                                               ; preds = %28
  %37 = load ptr, ptr %8, align 8, !tbaa !131
  %38 = load i64, ptr %12, align 8, !tbaa !43
  %39 = getelementptr inbounds nuw ptr, ptr %37, i64 %38
  %40 = load ptr, ptr %39, align 8, !tbaa !8
  store ptr %40, ptr %6, align 8
  store i32 1, ptr %13, align 4
  br label %48

41:                                               ; preds = %28, %22
  br label %42

42:                                               ; preds = %41
  %43 = load i64, ptr %12, align 8, !tbaa !43
  %44 = add i64 %43, 1
  store i64 %44, ptr %12, align 8, !tbaa !43
  br label %18

45:                                               ; preds = %18
  br label %46

46:                                               ; preds = %45, %5
  %47 = load ptr, ptr %11, align 8, !tbaa !8
  store ptr %47, ptr %6, align 8
  store i32 1, ptr %13, align 4
  br label %48

48:                                               ; preds = %46, %36
  call void @llvm.lifetime.end.p0(i64 8, ptr %12) #19
  %49 = load ptr, ptr %6, align 8
  ret ptr %49
}